target datalayout = "e-m:e-p270:32:32-p271:32:32-p272:64:64-i64:64-i128:128-f80:128-n8:16:32:64-S128"
target triple = "x86_64-pc-linux-gnu"

%struct.Gia_Man_t_ = type { ptr, ptr, i32, i32, i32, i32, ptr, ptr, i32, i32, i32, ptr, ptr, %struct.Vec_Int_t_, %struct.Vec_Int_t_, i32, i32, i32, %struct.Vec_Int_t_, ptr, ptr, ptr, i32, i32, i32, i32, ptr, ptr, ptr, ptr, ptr, i32, i32, ptr, i32, ptr, ptr, ptr, ptr, ptr, ptr, ptr, ptr, ptr, ptr, ptr, ptr, ptr, ptr, ptr, ptr, ptr, ptr, %struct.Vec_Int_t_, %struct.Vec_Int_t_, ptr, ptr, ptr, ptr, ptr, ptr, ptr, ptr, ptr, ptr, ptr, ptr, ptr, ptr, ptr, ptr, ptr, ptr, ptr, ptr, ptr, i32, float, float, ptr, ptr, i32, ptr, ptr, ptr, ptr, ptr, ptr, ptr, ptr, ptr, ptr, ptr, ptr, ptr, ptr, ptr, i64, i64, ptr, ptr, i32, i32, i32, i32, i32, i32, i32, i32, i32, i32, i32, i32, ptr, ptr, ptr, ptr, ptr, ptr, ptr, ptr, i32, i32, i32, ptr, i32, i32, ptr, ptr, ptr, ptr, ptr, ptr, i32, i32, ptr, %struct.Vec_Int_t_, %struct.Vec_Int_t_, %struct.Vec_Int_t_, ptr, ptr, ptr, i32, i32, i32, i32, ptr, ptr, ptr, ptr, ptr }
%struct.Vec_Int_t_ = type { i32, i32, ptr }
%struct.Ssc_Pars_t_ = type { i32, i32, i32, i32, i32, i32, i32 }

@.str = private unnamed_addr constant [11 x i8] c"User AIG: \00", align 1
@.str.1 = private unnamed_addr constant [11 x i8] c"Drop AIG: \00", align 1
@.str.2 = private unnamed_addr constant [11 x i8] c"AIG%3d  : \00", align 1

; Function Attrs: inlinehint nounwind uwtable
define internal i32 @Vec_IntSize(ptr noundef %0) #3 {
  %2 = alloca ptr, align 8
  store ptr %0, ptr %2, align 8, !tbaa !20
  %3 = load ptr, ptr %2, align 8, !tbaa !20
  %4 = getelementptr inbounds nuw %struct.Vec_Int_t_, ptr %3, i32 0, i32 1
  %5 = load i32, ptr %4, align 4, !tbaa !50
  ret i32 %5
}

; Function Attrs: inlinehint nounwind uwtable
define internal i32 @Gia_ManPoNum(ptr noundef %0) #3 {
  %2 = alloca ptr, align 8
  store ptr %0, ptr %2, align 8, !tbaa !3
  %3 = load ptr, ptr %2, align 8, !tbaa !3
  %4 = getelementptr inbounds nuw %struct.Gia_Man_t_, ptr %3, i32 0, i32 12
  %5 = load ptr, ptr %4, align 8, !tbaa !33
  %6 = call i32 @Vec_IntSize(ptr noundef %5)
  %7 = load ptr, ptr %2, align 8, !tbaa !3
  %8 = getelementptr inbounds nuw %struct.Gia_Man_t_, ptr %7, i32 0, i32 2
  %9 = load i32, ptr %8, align 8, !tbaa !49
  %10 = sub nsw i32 %6, %9
  ret i32 %10
}

; Function Attrs: nounwind uwtable
define ptr @Gia_ManOptimizeRing(ptr noundef %0) #0 {
  %2 = alloca ptr, align 8
  %3 = alloca ptr, align 8
  %4 = alloca %struct.Ssc_Pars_t_, align 4
  %5 = alloca ptr, align 8
  %6 = alloca ptr, align 8
  %7 = alloca ptr, align 8
  %8 = alloca i32, align 4
  %9 = alloca i32, align 4
  store ptr %0, ptr %3, align 8, !tbaa !3
  call void @llvm.lifetime.start.p0(i64 28, ptr %4) #7
  call void @llvm.lifetime.start.p0(i64 8, ptr %5) #7
  store ptr %4, ptr %5, align 8, !tbaa !54
  call void @llvm.lifetime.start.p0(i64 8, ptr %6) #7
  call void @llvm.lifetime.start.p0(i64 8, ptr %7) #7
  call void @llvm.lifetime.start.p0(i64 4, ptr %8) #7
  %10 = call i32 (ptr, ...) @printf(ptr noundef @.str)
  %11 = load ptr, ptr %3, align 8, !tbaa !3
  call void @Gia_ManPrintStats(ptr noundef %11, ptr noundef null)
  %12 = load ptr, ptr %3, align 8, !tbaa !3
  %13 = call ptr @Gia_ManDropContained(ptr noundef %12)
  store ptr %13, ptr %6, align 8, !tbaa !3
  %14 = call i32 (ptr, ...) @printf(ptr noundef @.str.1)
  %15 = load ptr, ptr %6, align 8, !tbaa !3
  call void @Gia_ManPrintStats(ptr noundef %15, ptr noundef null)
  %16 = load ptr, ptr %6, align 8, !tbaa !3
  %17 = call i32 @Gia_ManPoNum(ptr noundef %16)
  %18 = icmp eq i32 %17, 1
  br i1 %18, label %19, label %21

19:                                               ; preds = %1
  %20 = load ptr, ptr %6, align 8, !tbaa !3
  store ptr %20, ptr %2, align 8
  store i32 1, ptr %9, align 4
  br label %65

21:                                               ; preds = %1
  %22 = load ptr, ptr %5, align 8, !tbaa !54
  call void @Ssc_ManSetDefaultParams(ptr noundef %22)
  %23 = load ptr, ptr %5, align 8, !tbaa !54
  %24 = getelementptr inbounds nuw %struct.Ssc_Pars_t_, ptr %23, i32 0, i32 4
  store i32 1, ptr %24, align 4, !tbaa !56
  %25 = load ptr, ptr %5, align 8, !tbaa !54
  %26 = getelementptr inbounds nuw %struct.Ssc_Pars_t_, ptr %25, i32 0, i32 5
  store i32 0, ptr %26, align 4, !tbaa !58
  %27 = load ptr, ptr %6, align 8, !tbaa !3
  %28 = call i32 @Gia_ManPoNum(ptr noundef %27)
  %29 = sub nsw i32 %28, 1
  %30 = load ptr, ptr %6, align 8, !tbaa !3
  %31 = getelementptr inbounds nuw %struct.Gia_Man_t_, ptr %30, i32 0, i32 23
  store i32 %29, ptr %31, align 4, !tbaa !59
  store i32 0, ptr %8, align 4, !tbaa !19
  br label %32

32:                                               ; preds = %58, %21
  %33 = load i32, ptr %8, align 4, !tbaa !19
  %34 = load ptr, ptr %6, align 8, !tbaa !3
  %35 = call i32 @Gia_ManPoNum(ptr noundef %34)
  %36 = icmp slt i32 %33, %35
  br i1 %36, label %37, label %61

37:                                               ; preds = %32
  %38 = load ptr, ptr %6, align 8, !tbaa !3
  %39 = load i32, ptr %8, align 4, !tbaa !19
  call void @Gia_ManSwapPos(ptr noundef %38, i32 noundef %39)
  %40 = load ptr, ptr %6, align 8, !tbaa !3
  store ptr %40, ptr %7, align 8, !tbaa !3
  %41 = call ptr @Gia_ManDupDfs(ptr noundef %40)
  store ptr %41, ptr %6, align 8, !tbaa !3
  %42 = load ptr, ptr %7, align 8, !tbaa !3
  call void @Gia_ManStop(ptr noundef %42)
  %43 = load ptr, ptr %6, align 8, !tbaa !3
  store ptr %43, ptr %7, align 8, !tbaa !3
  %44 = load ptr, ptr %5, align 8, !tbaa !54
  %45 = call ptr @Ssc_PerformSweepingConstr(ptr noundef %43, ptr noundef %44)
  store ptr %45, ptr %6, align 8, !tbaa !3
  %46 = load ptr, ptr %7, align 8, !tbaa !3
  call void @Gia_ManStop(ptr noundef %46)
  %47 = load ptr, ptr %6, align 8, !tbaa !3
  store ptr %47, ptr %7, align 8, !tbaa !3
  %48 = call ptr @Gia_ManDupDfs(ptr noundef %47)
  store ptr %48, ptr %6, align 8, !tbaa !3
  %49 = load ptr, ptr %7, align 8, !tbaa !3
  call void @Gia_ManStop(ptr noundef %49)
  %50 = load ptr, ptr %6, align 8, !tbaa !3
  %51 = load i32, ptr %8, align 4, !tbaa !19
  call void @Gia_ManSwapPos(ptr noundef %50, i32 noundef %51)
  %52 = load ptr, ptr %6, align 8, !tbaa !3
  store ptr %52, ptr %7, align 8, !tbaa !3
  %53 = call ptr @Gia_ManDupDfs(ptr noundef %52)
  store ptr %53, ptr %6, align 8, !tbaa !3
  %54 = load ptr, ptr %7, align 8, !tbaa !3
  call void @Gia_ManStop(ptr noundef %54)
  %55 = load i32, ptr %8, align 4, !tbaa !19
  %56 = call i32 (ptr, ...) @printf(ptr noundef @.str.2, i32 noundef %55)
  %57 = load ptr, ptr %6, align 8, !tbaa !3
  call void @Gia_ManPrintStats(ptr noundef %57, ptr noundef null)
  br label %58

58:                                               ; preds = %37
  %59 = load i32, ptr %8, align 4, !tbaa !19
  %60 = add nsw i32 %59, 1
  store i32 %60, ptr %8, align 4, !tbaa !19
  br label %32, !llvm.loop !60

61:                                               ; preds = %32
  %62 = load ptr, ptr %6, align 8, !tbaa !3
  %63 = getelementptr inbounds nuw %struct.Gia_Man_t_, ptr %62, i32 0, i32 23
  store i32 0, ptr %63, align 4, !tbaa !59
  %64 = load ptr, ptr %6, align 8, !tbaa !3
  store ptr %64, ptr %2, align 8
  store i32 1, ptr %9, align 4
  br label %65

65:                                               ; preds = %61, %19
  call void @llvm.lifetime.end.p0(i64 4, ptr %8) #7
  call void @llvm.lifetime.end.p0(i64 8, ptr %7) #7
  call void @llvm.lifetime.end.p0(i64 8, ptr %6) #7
  call void @llvm.lifetime.end.p0(i64 8, ptr %5) #7
  call void @llvm.lifetime.end.p0(i64 28, ptr %4) #7
  %66 = load ptr, ptr %2, align 8
  ret ptr %66
}