; Function Attrs: nounwind uwtable
define ptr @Gia_ManOptimizeRing(ptr noundef %0) local_unnamed_addr #0 {
  %2 = alloca %struct.Ssc_Pars_t_, align 4
  call void @llvm.lifetime.start.p0(i64 28, ptr nonnull %2) #7
  %3 = tail call i32 (ptr, ...) @printf(ptr noundef nonnull dereferenceable(1) @.str)
  tail call void @Gia_ManPrintStats(ptr noundef %0, ptr noundef null) #7
  %4 = tail call ptr @Gia_ManDropContained(ptr noundef %0)
  %5 = tail call i32 (ptr, ...) @printf(ptr noundef nonnull dereferenceable(1) @.str.1)
  tail call void @Gia_ManPrintStats(ptr noundef %4, ptr noundef null) #7
  %6 = getelementptr i8, ptr %4, i64 16
  %.val34 = load i32, ptr %6, align 8, !tbaa !3
  %7 = getelementptr i8, ptr %4, i64 72
  %.val35 = load ptr, ptr %7, align 8, !tbaa !28
  %8 = getelementptr i8, ptr %.val35, i64 4
  %.val35.val = load i32, ptr %8, align 4, !tbaa !29
  %9 = sub nsw i32 %.val35.val, %.val34
  %10 = icmp eq i32 %9, 1
  br i1 %10, label %31, label %11

11:                                               ; preds = %1
  call void @Ssc_ManSetDefaultParams(ptr noundef nonnull %2) #7
  %12 = getelementptr inbounds nuw i8, ptr %2, i64 16
  store i32 1, ptr %12, align 4, !tbaa !46
  %13 = getelementptr inbounds nuw i8, ptr %2, i64 20
  store i32 0, ptr %13, align 4, !tbaa !48
  %.val = load i32, ptr %6, align 8, !tbaa !3
  %.val33 = load ptr, ptr %7, align 8, !tbaa !28
  %14 = getelementptr i8, ptr %.val33, i64 4
  %.val33.val = load i32, ptr %14, align 4, !tbaa !29
  %15 = xor i32 %.val, -1
  %16 = add i32 %.val33.val, %15
  %17 = getelementptr inbounds nuw i8, ptr %4, i64 172
  store i32 %16, ptr %17, align 4, !tbaa !49
  %18 = icmp sgt i32 %.val33.val, %.val
  br i1 %18, label %.lr.ph, label %._crit_edge

.lr.ph:                                           ; preds = %11, %.lr.ph
  %.040 = phi i32 [ %24, %.lr.ph ], [ 0, %11 ]
  %.03139 = phi ptr [ %22, %.lr.ph ], [ %4, %11 ]
  call void @Gia_ManSwapPos(ptr noundef nonnull %.03139, i32 noundef %.040) #7
  %19 = call ptr @Gia_ManDupDfs(ptr noundef nonnull %.03139) #7
  call void @Gia_ManStop(ptr noundef nonnull %.03139) #7
  %20 = call ptr @Ssc_PerformSweepingConstr(ptr noundef %19, ptr noundef nonnull %2) #7
  call void @Gia_ManStop(ptr noundef %19) #7
  %21 = call ptr @Gia_ManDupDfs(ptr noundef %20) #7
  call void @Gia_ManStop(ptr noundef %20) #7
  call void @Gia_ManSwapPos(ptr noundef %21, i32 noundef %.040) #7
  %22 = call ptr @Gia_ManDupDfs(ptr noundef %21) #7
  call void @Gia_ManStop(ptr noundef %21) #7
  %23 = call i32 (ptr, ...) @printf(ptr noundef nonnull dereferenceable(1) @.str.2, i32 noundef %.040)
  call void @Gia_ManPrintStats(ptr noundef %22, ptr noundef null) #7
  %24 = add nuw nsw i32 %.040, 1
  %25 = getelementptr i8, ptr %22, i64 16
  %.031.val = load i32, ptr %25, align 8, !tbaa !3
  %26 = getelementptr i8, ptr %22, i64 72
  %.031.val32 = load ptr, ptr %26, align 8, !tbaa !28
  %27 = getelementptr i8, ptr %.031.val32, i64 4
  %.031.val32.val = load i32, ptr %27, align 4, !tbaa !29
  %28 = sub nsw i32 %.031.val32.val, %.031.val
  %29 = icmp slt i32 %24, %28
  br i1 %29, label %.lr.ph, label %._crit_edge, !llvm.loop !50

._crit_edge:                                      ; preds = %.lr.ph, %11
  %.031.lcssa = phi ptr [ %4, %11 ], [ %22, %.lr.ph ]
  %30 = getelementptr inbounds nuw i8, ptr %.031.lcssa, i64 172
  store i32 0, ptr %30, align 4, !tbaa !49
  br label %31

31:                                               ; preds = %1, %._crit_edge
  %.030 = phi ptr [ %.031.lcssa, %._crit_edge ], [ %4, %1 ]
  call void @llvm.lifetime.end.p0(i64 28, ptr nonnull %2) #7
  ret ptr %.030
}